target datalayout = "e-m:e-p270:32:32-p271:32:32-p272:64:64-i64:64-i128:128-f80:128-n8:16:32:64-S128"
target triple = "x86_64-pc-linux-gnu"

%"class.cv::ap3p" = type { double, double, double, double, double, double, double, double }
%"class.cv::Mat" = type { i32, i32, i32, i32, ptr, ptr, ptr, ptr, ptr, ptr, %"struct.cv::MatSize", %"struct.cv::MatStep" }
%"struct.cv::MatSize" = type { ptr }
%"struct.cv::MatStep" = type { ptr, [2 x i64] }

; Function Attrs: inlinehint mustprogress nounwind uwtable
define linkonce_odr hidden noundef nonnull align 8 dereferenceable(8) ptr @_ZNK2cv3Mat2atIdEERKT_ii(ptr noundef nonnull align 8 dereferenceable(96) %0, i32 noundef %1, i32 noundef %2) #6 comdat align 2 {
  %4 = alloca ptr, align 8
  %5 = alloca i32, align 4
  %6 = alloca i32, align 4
  store ptr %0, ptr %4, align 8, !tbaa !18
  store i32 %1, ptr %5, align 4, !tbaa !37
  store i32 %2, ptr %6, align 4, !tbaa !37
  %7 = load ptr, ptr %4, align 8
  %8 = getelementptr inbounds nuw %"class.cv::Mat", ptr %7, i32 0, i32 4
  %9 = load ptr, ptr %8, align 8, !tbaa !119
  %10 = getelementptr inbounds nuw %"class.cv::Mat", ptr %7, i32 0, i32 11
  %11 = getelementptr inbounds nuw %"struct.cv::MatStep", ptr %10, i32 0, i32 0
  %12 = load ptr, ptr %11, align 8, !tbaa !120
  %13 = getelementptr inbounds i64, ptr %12, i64 0
  %14 = load i64, ptr %13, align 8, !tbaa !46
  %15 = load i32, ptr %5, align 4, !tbaa !37
  %16 = sext i32 %15 to i64
  %17 = mul i64 %14, %16
  %18 = getelementptr inbounds nuw i8, ptr %9, i64 %17
  %19 = load i32, ptr %6, align 4, !tbaa !37
  %20 = sext i32 %19 to i64
  %21 = getelementptr inbounds double, ptr %18, i64 %20
  ret ptr %21
}

; Function Attrs: inlinehint mustprogress nounwind uwtable
define linkonce_odr hidden noundef nonnull align 4 dereferenceable(4) ptr @_ZNK2cv3Mat2atIfEERKT_ii(ptr noundef nonnull align 8 dereferenceable(96) %0, i32 noundef %1, i32 noundef %2) #6 comdat align 2 {
  %4 = alloca ptr, align 8
  %5 = alloca i32, align 4
  %6 = alloca i32, align 4
  store ptr %0, ptr %4, align 8, !tbaa !18
  store i32 %1, ptr %5, align 4, !tbaa !37
  store i32 %2, ptr %6, align 4, !tbaa !37
  %7 = load ptr, ptr %4, align 8
  %8 = getelementptr inbounds nuw %"class.cv::Mat", ptr %7, i32 0, i32 4
  %9 = load ptr, ptr %8, align 8, !tbaa !119
  %10 = getelementptr inbounds nuw %"class.cv::Mat", ptr %7, i32 0, i32 11
  %11 = getelementptr inbounds nuw %"struct.cv::MatStep", ptr %10, i32 0, i32 0
  %12 = load ptr, ptr %11, align 8, !tbaa !120
  %13 = getelementptr inbounds i64, ptr %12, i64 0
  %14 = load i64, ptr %13, align 8, !tbaa !46
  %15 = load i32, ptr %5, align 4, !tbaa !37
  %16 = sext i32 %15 to i64
  %17 = mul i64 %14, %16
  %18 = getelementptr inbounds nuw i8, ptr %9, i64 %17
  %19 = load i32, ptr %6, align 4, !tbaa !37
  %20 = sext i32 %19 to i64
  %21 = getelementptr inbounds float, ptr %18, i64 %20
  ret ptr %21
}

; Function Attrs: mustprogress nounwind uwtable
define hidden void @_ZN2cv4ap3p23init_inverse_parametersEv(ptr noundef nonnull align 8 dereferenceable(64) %0) #4 align 2 {
  %2 = alloca ptr, align 8
  store ptr %0, ptr %2, align 8, !tbaa !3
  %3 = load ptr, ptr %2, align 8
  %4 = getelementptr inbounds nuw %"class.cv::ap3p", ptr %3, i32 0, i32 0
  %5 = load double, ptr %4, align 8, !tbaa !8
  %6 = fdiv double 1.000000e+00, %5
  %7 = getelementptr inbounds nuw %"class.cv::ap3p", ptr %3, i32 0, i32 4
  store double %6, ptr %7, align 8, !tbaa !11
  %8 = getelementptr inbounds nuw %"class.cv::ap3p", ptr %3, i32 0, i32 1
  %9 = load double, ptr %8, align 8, !tbaa !12
  %10 = fdiv double 1.000000e+00, %9
  %11 = getelementptr inbounds nuw %"class.cv::ap3p", ptr %3, i32 0, i32 5
  store double %10, ptr %11, align 8, !tbaa !13
  %12 = getelementptr inbounds nuw %"class.cv::ap3p", ptr %3, i32 0, i32 2
  %13 = load double, ptr %12, align 8, !tbaa !14
  %14 = getelementptr inbounds nuw %"class.cv::ap3p", ptr %3, i32 0, i32 0
  %15 = load double, ptr %14, align 8, !tbaa !8
  %16 = fdiv double %13, %15
  %17 = getelementptr inbounds nuw %"class.cv::ap3p", ptr %3, i32 0, i32 6
  store double %16, ptr %17, align 8, !tbaa !15
  %18 = getelementptr inbounds nuw %"class.cv::ap3p", ptr %3, i32 0, i32 3
  %19 = load double, ptr %18, align 8, !tbaa !16
  %20 = getelementptr inbounds nuw %"class.cv::ap3p", ptr %3, i32 0, i32 1
  %21 = load double, ptr %20, align 8, !tbaa !12
  %22 = fdiv double %19, %21
  %23 = getelementptr inbounds nuw %"class.cv::ap3p", ptr %3, i32 0, i32 7
  store double %22, ptr %23, align 8, !tbaa !17
  ret void
}

; Function Attrs: mustprogress uwtable
define linkonce_odr hidden void @_ZN2cv4ap3p22init_camera_parametersIdEEvRKNS_3MatE(ptr noundef nonnull align 8 dereferenceable(64) %0, ptr noundef nonnull align 8 dereferenceable(96) %1) #5 comdat align 2 {
  %3 = alloca ptr, align 8
  %4 = alloca ptr, align 8
  store ptr %0, ptr %3, align 8, !tbaa !3
  store ptr %1, ptr %4, align 8, !tbaa !18
  %5 = load ptr, ptr %3, align 8
  %6 = load ptr, ptr %4, align 8, !tbaa !18
  %7 = call noundef nonnull align 8 dereferenceable(8) ptr @_ZNK2cv3Mat2atIdEERKT_ii(ptr noundef nonnull align 8 dereferenceable(96) %6, i32 noundef 0, i32 noundef 2)
  %8 = load double, ptr %7, align 8, !tbaa !32
  %9 = getelementptr inbounds nuw %"class.cv::ap3p", ptr %5, i32 0, i32 2
  store double %8, ptr %9, align 8, !tbaa !14
  %10 = load ptr, ptr %4, align 8, !tbaa !18
  %11 = call noundef nonnull align 8 dereferenceable(8) ptr @_ZNK2cv3Mat2atIdEERKT_ii(ptr noundef nonnull align 8 dereferenceable(96) %10, i32 noundef 1, i32 noundef 2)
  %12 = load double, ptr %11, align 8, !tbaa !32
  %13 = getelementptr inbounds nuw %"class.cv::ap3p", ptr %5, i32 0, i32 3
  store double %12, ptr %13, align 8, !tbaa !16
  %14 = load ptr, ptr %4, align 8, !tbaa !18
  %15 = call noundef nonnull align 8 dereferenceable(8) ptr @_ZNK2cv3Mat2atIdEERKT_ii(ptr noundef nonnull align 8 dereferenceable(96) %14, i32 noundef 0, i32 noundef 0)
  %16 = load double, ptr %15, align 8, !tbaa !32
  %17 = getelementptr inbounds nuw %"class.cv::ap3p", ptr %5, i32 0, i32 0
  store double %16, ptr %17, align 8, !tbaa !8
  %18 = load ptr, ptr %4, align 8, !tbaa !18
  %19 = call noundef nonnull align 8 dereferenceable(8) ptr @_ZNK2cv3Mat2atIdEERKT_ii(ptr noundef nonnull align 8 dereferenceable(96) %18, i32 noundef 1, i32 noundef 1)
  %20 = load double, ptr %19, align 8, !tbaa !32
  %21 = getelementptr inbounds nuw %"class.cv::ap3p", ptr %5, i32 0, i32 1
  store double %20, ptr %21, align 8, !tbaa !12
  ret void
}

; Function Attrs: mustprogress uwtable
define linkonce_odr hidden void @_ZN2cv4ap3p22init_camera_parametersIfEEvRKNS_3MatE(ptr noundef nonnull align 8 dereferenceable(64) %0, ptr noundef nonnull align 8 dereferenceable(96) %1) #5 comdat align 2 {
  %3 = alloca ptr, align 8
  %4 = alloca ptr, align 8
  store ptr %0, ptr %3, align 8, !tbaa !3
  store ptr %1, ptr %4, align 8, !tbaa !18
  %5 = load ptr, ptr %3, align 8
  %6 = load ptr, ptr %4, align 8, !tbaa !18
  %7 = call noundef nonnull align 4 dereferenceable(4) ptr @_ZNK2cv3Mat2atIfEERKT_ii(ptr noundef nonnull align 8 dereferenceable(96) %6, i32 noundef 0, i32 noundef 2)
  %8 = load float, ptr %7, align 4, !tbaa !30
  %9 = fpext float %8 to double
  %10 = getelementptr inbounds nuw %"class.cv::ap3p", ptr %5, i32 0, i32 2
  store double %9, ptr %10, align 8, !tbaa !14
  %11 = load ptr, ptr %4, align 8, !tbaa !18
  %12 = call noundef nonnull align 4 dereferenceable(4) ptr @_ZNK2cv3Mat2atIfEERKT_ii(ptr noundef nonnull align 8 dereferenceable(96) %11, i32 noundef 1, i32 noundef 2)
  %13 = load float, ptr %12, align 4, !tbaa !30
  %14 = fpext float %13 to double
  %15 = getelementptr inbounds nuw %"class.cv::ap3p", ptr %5, i32 0, i32 3
  store double %14, ptr %15, align 8, !tbaa !16
  %16 = load ptr, ptr %4, align 8, !tbaa !18
  %17 = call noundef nonnull align 4 dereferenceable(4) ptr @_ZNK2cv3Mat2atIfEERKT_ii(ptr noundef nonnull align 8 dereferenceable(96) %16, i32 noundef 0, i32 noundef 0)
  %18 = load float, ptr %17, align 4, !tbaa !30
  %19 = fpext float %18 to double
  %20 = getelementptr inbounds nuw %"class.cv::ap3p", ptr %5, i32 0, i32 0
  store double %19, ptr %20, align 8, !tbaa !8
  %21 = load ptr, ptr %4, align 8, !tbaa !18
  %22 = call noundef nonnull align 4 dereferenceable(4) ptr @_ZNK2cv3Mat2atIfEERKT_ii(ptr noundef nonnull align 8 dereferenceable(96) %21, i32 noundef 1, i32 noundef 1)
  %23 = load float, ptr %22, align 4, !tbaa !30
  %24 = fpext float %23 to double
  %25 = getelementptr inbounds nuw %"class.cv::ap3p", ptr %5, i32 0, i32 1
  store double %24, ptr %25, align 8, !tbaa !12
  ret void
}

; Function Attrs: inlinehint mustprogress nounwind uwtable
define linkonce_odr hidden noundef i32 @_ZNK2cv3Mat5depthEv(ptr noundef nonnull align 8 dereferenceable(96) %0) #6 comdat align 2 {
  %2 = alloca ptr, align 8
  store ptr %0, ptr %2, align 8, !tbaa !18
  %3 = load ptr, ptr %2, align 8
  %4 = getelementptr inbounds nuw %"class.cv::Mat", ptr %3, i32 0, i32 0
  %5 = load i32, ptr %4, align 8, !tbaa !20
  %6 = and i32 %5, 7
  ret i32 %6
}

; Function Attrs: mustprogress uwtable
define hidden void @_ZN2cv4ap3pC2ENS_3MatE(ptr noundef nonnull align 8 dereferenceable(64) %0, ptr noundef %1) unnamed_addr #5 align 2 {
  %3 = alloca ptr, align 8
  %4 = alloca ptr, align 8
  store ptr %0, ptr %3, align 8, !tbaa !3
  store ptr %1, ptr %4, align 8, !tbaa !18
  %5 = load ptr, ptr %3, align 8
  %6 = call noundef i32 @_ZNK2cv3Mat5depthEv(ptr noundef nonnull align 8 dereferenceable(96) %1)
  %7 = icmp eq i32 %6, 5
  br i1 %7, label %8, label %9

8:                                                ; preds = %2
  call void @_ZN2cv4ap3p22init_camera_parametersIfEEvRKNS_3MatE(ptr noundef nonnull align 8 dereferenceable(64) %5, ptr noundef nonnull align 8 dereferenceable(96) %1)
  br label %10

9:                                                ; preds = %2
  call void @_ZN2cv4ap3p22init_camera_parametersIdEEvRKNS_3MatE(ptr noundef nonnull align 8 dereferenceable(64) %5, ptr noundef nonnull align 8 dereferenceable(96) %1)
  br label %10

10:                                               ; preds = %9, %8
  call void @_ZN2cv4ap3p23init_inverse_parametersEv(ptr noundef nonnull align 8 dereferenceable(64) %5)
  ret void
}